target datalayout = "e-m:e-p270:32:32-p271:32:32-p272:64:64-i64:64-i128:128-f80:128-n8:16:32:64-S128"
target triple = "x86_64-pc-linux-gnu"

; Function Attrs: nounwind uwtable
define i32 @ssl_get_EC_curve_nid(ptr noundef %0) #1 {
  %2 = alloca i32, align 4
  %3 = alloca ptr, align 8
  %4 = alloca [50 x i8], align 16
  %5 = alloca i32, align 4
  store ptr %0, ptr %3, align 8, !tbaa !202
  call void @llvm.lifetime.start.p0(i64 50, ptr %4) #8
  %6 = load ptr, ptr %3, align 8, !tbaa !202
  %7 = getelementptr inbounds [50 x i8], ptr %4, i64 0, i64 0
  %8 = call i32 @EVP_PKEY_get_group_name(ptr noundef %6, ptr noundef %7, i64 noundef 50, ptr noundef null)
  %9 = icmp sgt i32 %8, 0
  br i1 %9, label %10, label %13

10:                                               ; preds = %1
  %11 = getelementptr inbounds [50 x i8], ptr %4, i64 0, i64 0
  %12 = call i32 @OBJ_txt2nid(ptr noundef %11)
  store i32 %12, ptr %2, align 4
  store i32 1, ptr %5, align 4
  br label %14

13:                                               ; preds = %1
  store i32 0, ptr %2, align 4
  store i32 1, ptr %5, align 4
  br label %14

14:                                               ; preds = %13, %10
  call void @llvm.lifetime.end.p0(i64 50, ptr %4) #8
  %15 = load i32, ptr %2, align 4
  ret i32 %15
}