; Function Attrs: nounwind uwtable
define i32 @ssl_get_EC_curve_nid(ptr noundef %0) local_unnamed_addr #2 {
  %2 = alloca [50 x i8], align 16
  call void @llvm.lifetime.start.p0(i64 50, ptr nonnull %2) #14
  %3 = call i32 @EVP_PKEY_get_group_name(ptr noundef %0, ptr noundef nonnull %2, i64 noundef 50, ptr noundef null) #14
  %4 = icmp sgt i32 %3, 0
  br i1 %4, label %5, label %7

5:                                                ; preds = %1
  %6 = call i32 @OBJ_txt2nid(ptr noundef nonnull %2) #14
  br label %7

7:                                                ; preds = %1, %5
  %.0 = phi i32 [ %6, %5 ], [ 0, %1 ]
  call void @llvm.lifetime.end.p0(i64 50, ptr nonnull %2) #14
  ret i32 %.0
}